target datalayout = "e-m:e-p270:32:32-p271:32:32-p272:64:64-i64:64-i128:128-f80:128-n8:16:32:64-S128"
target triple = "x86_64-pc-linux-gnu"

%struct.re_registers = type { i32, i32, ptr, ptr, ptr }
%struct.OnigRegSetStruct = type { ptr, i32, i32, ptr, i32, i32, i32, i32, i32 }
%struct.RR = type { ptr, ptr }

; Function Attrs: nounwind uwtable
define internal void @history_root_free(ptr noundef %0) #0 {
  %2 = alloca ptr, align 8
  store ptr %0, ptr %2, align 8, !tbaa !21
  %3 = load ptr, ptr %2, align 8, !tbaa !21
  %4 = getelementptr inbounds nuw %struct.re_registers, ptr %3, i32 0, i32 4
  %5 = load ptr, ptr %4, align 8, !tbaa !23
  %6 = icmp eq ptr %5, null
  br i1 %6, label %7, label %8

7:                                                ; preds = %1
  br label %14

8:                                                ; preds = %1
  %9 = load ptr, ptr %2, align 8, !tbaa !21
  %10 = getelementptr inbounds nuw %struct.re_registers, ptr %9, i32 0, i32 4
  %11 = load ptr, ptr %10, align 8, !tbaa !23
  call void @history_tree_free(ptr noundef %11)
  %12 = load ptr, ptr %2, align 8, !tbaa !21
  %13 = getelementptr inbounds nuw %struct.re_registers, ptr %12, i32 0, i32 4
  store ptr null, ptr %13, align 8, !tbaa !23
  br label %14

14:                                               ; preds = %8, %7
  ret void
}

; Function Attrs: nounwind uwtable
define dso_local void @onig_region_free(ptr noundef %0, i32 noundef %1) #0 {
  %3 = alloca ptr, align 8
  %4 = alloca i32, align 4
  store ptr %0, ptr %3, align 8, !tbaa !21
  store i32 %1, ptr %4, align 4, !tbaa !9
  %5 = load ptr, ptr %3, align 8, !tbaa !21
  %6 = icmp ne ptr %5, null
  br i1 %6, label %7, label %40

7:                                                ; preds = %2
  %8 = load ptr, ptr %3, align 8, !tbaa !21
  %9 = getelementptr inbounds nuw %struct.re_registers, ptr %8, i32 0, i32 0
  %10 = load i32, ptr %9, align 8, !tbaa !32
  %11 = icmp sgt i32 %10, 0
  br i1 %11, label %12, label %33

12:                                               ; preds = %7
  %13 = load ptr, ptr %3, align 8, !tbaa !21
  %14 = getelementptr inbounds nuw %struct.re_registers, ptr %13, i32 0, i32 2
  %15 = load ptr, ptr %14, align 8, !tbaa !29
  %16 = icmp ne ptr %15, null
  br i1 %16, label %17, label %21

17:                                               ; preds = %12
  %18 = load ptr, ptr %3, align 8, !tbaa !21
  %19 = getelementptr inbounds nuw %struct.re_registers, ptr %18, i32 0, i32 2
  %20 = load ptr, ptr %19, align 8, !tbaa !29
  call void @free(ptr noundef %20) #9
  br label %21

21:                                               ; preds = %17, %12
  %22 = load ptr, ptr %3, align 8, !tbaa !21
  %23 = getelementptr inbounds nuw %struct.re_registers, ptr %22, i32 0, i32 3
  %24 = load ptr, ptr %23, align 8, !tbaa !28
  %25 = icmp ne ptr %24, null
  br i1 %25, label %26, label %30

26:                                               ; preds = %21
  %27 = load ptr, ptr %3, align 8, !tbaa !21
  %28 = getelementptr inbounds nuw %struct.re_registers, ptr %27, i32 0, i32 3
  %29 = load ptr, ptr %28, align 8, !tbaa !28
  call void @free(ptr noundef %29) #9
  br label %30

30:                                               ; preds = %26, %21
  %31 = load ptr, ptr %3, align 8, !tbaa !21
  %32 = getelementptr inbounds nuw %struct.re_registers, ptr %31, i32 0, i32 0
  store i32 0, ptr %32, align 8, !tbaa !32
  br label %33

33:                                               ; preds = %30, %7
  %34 = load ptr, ptr %3, align 8, !tbaa !21
  call void @history_root_free(ptr noundef %34)
  %35 = load i32, ptr %4, align 4, !tbaa !9
  %36 = icmp ne i32 %35, 0
  br i1 %36, label %37, label %39

37:                                               ; preds = %33
  %38 = load ptr, ptr %3, align 8, !tbaa !21
  call void @free(ptr noundef %38) #9
  br label %39

39:                                               ; preds = %37, %33
  br label %40

40:                                               ; preds = %39, %2
  ret void
}

; Function Attrs: nounwind uwtable
define dso_local i32 @onig_regset_new(ptr noundef %0, i32 noundef %1, ptr noundef %2) #0 {
  %4 = alloca i32, align 4
  %5 = alloca ptr, align 8
  %6 = alloca i32, align 4
  %7 = alloca ptr, align 8
  %8 = alloca i32, align 4
  %9 = alloca i32, align 4
  %10 = alloca i32, align 4
  %11 = alloca ptr, align 8
  %12 = alloca ptr, align 8
  %13 = alloca i32, align 4
  %14 = alloca ptr, align 8
  %15 = alloca ptr, align 8
  store ptr %0, ptr %5, align 8, !tbaa !204
  store i32 %1, ptr %6, align 4, !tbaa !9
  store ptr %2, ptr %7, align 8, !tbaa !206
  call void @llvm.lifetime.start.p0(i64 4, ptr %8) #9
  call void @llvm.lifetime.start.p0(i64 4, ptr %9) #9
  call void @llvm.lifetime.start.p0(i64 4, ptr %10) #9
  call void @llvm.lifetime.start.p0(i64 8, ptr %11) #9
  call void @llvm.lifetime.start.p0(i64 8, ptr %12) #9
  %16 = load ptr, ptr %5, align 8, !tbaa !204
  store ptr null, ptr %16, align 8, !tbaa !62
  %17 = call noalias ptr @malloc(i64 noundef 48) #10
  store ptr %17, ptr %11, align 8, !tbaa !62
  %18 = load ptr, ptr %11, align 8, !tbaa !62
  %19 = icmp eq ptr %18, null
  br i1 %19, label %20, label %21

20:                                               ; preds = %3
  store i32 -5, ptr %4, align 4
  store i32 1, ptr %13, align 4
  br label %101

21:                                               ; preds = %3
  %22 = load i32, ptr %6, align 4, !tbaa !9
  %23 = icmp sgt i32 %22, 10
  br i1 %23, label %24, label %26

24:                                               ; preds = %21
  %25 = load i32, ptr %6, align 4, !tbaa !9
  br label %27

26:                                               ; preds = %21
  br label %27

27:                                               ; preds = %26, %24
  %28 = phi i32 [ %25, %24 ], [ 10, %26 ]
  store i32 %28, ptr %10, align 4, !tbaa !9
  %29 = load i32, ptr %10, align 4, !tbaa !9
  %30 = sext i32 %29 to i64
  %31 = mul i64 16, %30
  %32 = call noalias ptr @malloc(i64 noundef %31) #10
  store ptr %32, ptr %12, align 8, !tbaa !17
  %33 = load ptr, ptr %12, align 8, !tbaa !17
  %34 = icmp eq ptr %33, null
  br i1 %34, label %35, label %37

35:                                               ; preds = %27
  %36 = load ptr, ptr %11, align 8, !tbaa !62
  call void @free(ptr noundef %36) #9
  store i32 -5, ptr %4, align 4
  store i32 1, ptr %13, align 4
  br label %101

37:                                               ; preds = %27
  %38 = load ptr, ptr %12, align 8, !tbaa !17
  %39 = load ptr, ptr %11, align 8, !tbaa !62
  %40 = getelementptr inbounds nuw %struct.OnigRegSetStruct, ptr %39, i32 0, i32 0
  store ptr %38, ptr %40, align 8, !tbaa !72
  %41 = load ptr, ptr %11, align 8, !tbaa !62
  %42 = getelementptr inbounds nuw %struct.OnigRegSetStruct, ptr %41, i32 0, i32 1
  store i32 0, ptr %42, align 8, !tbaa !67
  %43 = load i32, ptr %10, align 4, !tbaa !9
  %44 = load ptr, ptr %11, align 8, !tbaa !62
  %45 = getelementptr inbounds nuw %struct.OnigRegSetStruct, ptr %44, i32 0, i32 2
  store i32 %43, ptr %45, align 4, !tbaa !208
  store i32 0, ptr %8, align 4, !tbaa !9
  br label %46

46:                                               ; preds = %95, %37
  %47 = load i32, ptr %8, align 4, !tbaa !9
  %48 = load i32, ptr %6, align 4, !tbaa !9
  %49 = icmp slt i32 %47, %48
  br i1 %49, label %50, label %98

50:                                               ; preds = %46
  call void @llvm.lifetime.start.p0(i64 8, ptr %14) #9
  %51 = load ptr, ptr %7, align 8, !tbaa !206
  %52 = load i32, ptr %8, align 4, !tbaa !9
  %53 = sext i32 %52 to i64
  %54 = getelementptr inbounds ptr, ptr %51, i64 %53
  %55 = load ptr, ptr %54, align 8, !tbaa !57
  store ptr %55, ptr %14, align 8, !tbaa !57
  %56 = load ptr, ptr %11, align 8, !tbaa !62
  %57 = load ptr, ptr %14, align 8, !tbaa !57
  %58 = call i32 @onig_regset_add(ptr noundef %56, ptr noundef %57)
  store i32 %58, ptr %9, align 4, !tbaa !9
  %59 = load i32, ptr %9, align 4, !tbaa !9
  %60 = icmp ne i32 %59, 0
  br i1 %60, label %61, label %91

61:                                               ; preds = %50
  store i32 0, ptr %8, align 4, !tbaa !9
  br label %62

62:                                               ; preds = %82, %61
  %63 = load i32, ptr %8, align 4, !tbaa !9
  %64 = load ptr, ptr %11, align 8, !tbaa !62
  %65 = getelementptr inbounds nuw %struct.OnigRegSetStruct, ptr %64, i32 0, i32 1
  %66 = load i32, ptr %65, align 8, !tbaa !67
  %67 = icmp slt i32 %63, %66
  br i1 %67, label %68, label %85

68:                                               ; preds = %62
  call void @llvm.lifetime.start.p0(i64 8, ptr %15) #9
  %69 = load ptr, ptr %11, align 8, !tbaa !62
  %70 = getelementptr inbounds nuw %struct.OnigRegSetStruct, ptr %69, i32 0, i32 0
  %71 = load ptr, ptr %70, align 8, !tbaa !72
  %72 = load i32, ptr %8, align 4, !tbaa !9
  %73 = sext i32 %72 to i64
  %74 = getelementptr inbounds %struct.RR, ptr %71, i64 %73
  %75 = getelementptr inbounds nuw %struct.RR, ptr %74, i32 0, i32 1
  %76 = load ptr, ptr %75, align 8, !tbaa !75
  store ptr %76, ptr %15, align 8, !tbaa !21
  %77 = load ptr, ptr %15, align 8, !tbaa !21
  %78 = icmp ne ptr %77, null
  br i1 %78, label %79, label %81

79:                                               ; preds = %68
  %80 = load ptr, ptr %15, align 8, !tbaa !21
  call void @onig_region_free(ptr noundef %80, i32 noundef 1)
  br label %81

81:                                               ; preds = %79, %68
  call void @llvm.lifetime.end.p0(i64 8, ptr %15) #9
  br label %82

82:                                               ; preds = %81
  %83 = load i32, ptr %8, align 4, !tbaa !9
  %84 = add nsw i32 %83, 1
  store i32 %84, ptr %8, align 4, !tbaa !9
  br label %62, !llvm.loop !209

85:                                               ; preds = %62
  %86 = load ptr, ptr %11, align 8, !tbaa !62
  %87 = getelementptr inbounds nuw %struct.OnigRegSetStruct, ptr %86, i32 0, i32 0
  %88 = load ptr, ptr %87, align 8, !tbaa !72
  call void @free(ptr noundef %88) #9
  %89 = load ptr, ptr %11, align 8, !tbaa !62
  call void @free(ptr noundef %89) #9
  %90 = load i32, ptr %9, align 4, !tbaa !9
  store i32 %90, ptr %4, align 4
  store i32 1, ptr %13, align 4
  br label %92

91:                                               ; preds = %50
  store i32 0, ptr %13, align 4
  br label %92

92:                                               ; preds = %91, %85
  call void @llvm.lifetime.end.p0(i64 8, ptr %14) #9
  %93 = load i32, ptr %13, align 4
  switch i32 %93, label %101 [
    i32 0, label %94
  ]

94:                                               ; preds = %92
  br label %95

95:                                               ; preds = %94
  %96 = load i32, ptr %8, align 4, !tbaa !9
  %97 = add nsw i32 %96, 1
  store i32 %97, ptr %8, align 4, !tbaa !9
  br label %46, !llvm.loop !210

98:                                               ; preds = %46
  %99 = load ptr, ptr %11, align 8, !tbaa !62
  %100 = load ptr, ptr %5, align 8, !tbaa !204
  store ptr %99, ptr %100, align 8, !tbaa !62
  store i32 0, ptr %4, align 4
  store i32 1, ptr %13, align 4
  br label %101

101:                                              ; preds = %98, %92, %35, %20
  call void @llvm.lifetime.end.p0(i64 8, ptr %12) #9
  call void @llvm.lifetime.end.p0(i64 8, ptr %11) #9
  call void @llvm.lifetime.end.p0(i64 4, ptr %10) #9
  call void @llvm.lifetime.end.p0(i64 4, ptr %9) #9
  call void @llvm.lifetime.end.p0(i64 4, ptr %8) #9
  %102 = load i32, ptr %4, align 4
  ret i32 %102
}