; Function Attrs: nounwind uwtable
define dso_local range(i32 -30, 1) i32 @onig_regset_new(ptr noundef writeonly captures(none) initializes((0, 8)) %0, i32 noundef %1, ptr noundef readonly captures(none) %2) local_unnamed_addr #4 {
  store ptr null, ptr %0, align 8, !tbaa !199
  %4 = tail call noalias dereferenceable_or_null(48) ptr @malloc(i64 noundef 48) #28
  %5 = icmp eq ptr %4, null
  br i1 %5, label %45, label %6

6:                                                ; preds = %3
  %7 = tail call i32 @llvm.smax.i32(i32 %1, i32 10)
  %8 = zext nneg i32 %7 to i64
  %9 = shl nuw nsw i64 %8, 4
  %10 = tail call noalias ptr @malloc(i64 noundef %9) #28
  %11 = icmp eq ptr %10, null
  br i1 %11, label %12, label %13

12:                                               ; preds = %6
  tail call void @free(ptr noundef nonnull %4) #30
  br label %45

13:                                               ; preds = %6
  store ptr %10, ptr %4, align 8, !tbaa !61
  %14 = getelementptr inbounds nuw i8, ptr %4, i64 8
  store i32 0, ptr %14, align 8, !tbaa !57
  %15 = getelementptr inbounds nuw i8, ptr %4, i64 12
  store i32 %7, ptr %15, align 4, !tbaa !201
  %16 = icmp sgt i32 %1, 0
  br i1 %16, label %.thread.preheader, label %._crit_edge

.thread.preheader:                                ; preds = %13
  %wide.trip.count = zext nneg i32 %1 to i64
  br label %.thread

17:                                               ; preds = %.thread
  %indvars.iv.next = add nuw nsw i64 %indvars.iv, 1
  %exitcond.not = icmp eq i64 %indvars.iv.next, %wide.trip.count
  br i1 %exitcond.not, label %._crit_edge, label %.thread, !llvm.loop !202

.thread:                                          ; preds = %.thread.preheader, %17
  %indvars.iv = phi i64 [ 0, %.thread.preheader ], [ %indvars.iv.next, %17 ]
  %18 = getelementptr inbounds nuw ptr, ptr %2, i64 %indvars.iv
  %19 = load ptr, ptr %18, align 8, !tbaa !203
  %20 = tail call i32 @onig_regset_add(ptr noundef nonnull %4, ptr noundef %19)
  %.not = icmp eq i32 %20, 0
  br i1 %.not, label %17, label %.preheader

.preheader:                                       ; preds = %.thread
  %21 = load i32, ptr %14, align 8, !tbaa !57
  %22 = icmp sgt i32 %21, 0
  %.pre54 = load ptr, ptr %4, align 8, !tbaa !61
  br i1 %22, label %.lr.ph.preheader, label %._crit_edge48

.lr.ph.preheader:                                 ; preds = %.preheader
  %23 = zext nneg i32 %21 to i64
  br label %.lr.ph

.lr.ph:                                           ; preds = %.lr.ph.preheader, %43
  %indvars.iv51 = phi i64 [ 0, %.lr.ph.preheader ], [ %indvars.iv.next52, %43 ]
  %24 = getelementptr inbounds nuw %struct.RR, ptr %.pre54, i64 %indvars.iv51, i32 1
  %25 = load ptr, ptr %24, align 8, !tbaa !64
  %.not41 = icmp eq ptr %25, null
  br i1 %.not41, label %43, label %26

26:                                               ; preds = %.lr.ph
  %27 = load i32, ptr %25, align 8, !tbaa !27
  %28 = icmp sgt i32 %27, 0
  br i1 %28, label %29, label %38

29:                                               ; preds = %26
  %30 = getelementptr inbounds nuw i8, ptr %25, i64 8
  %31 = load ptr, ptr %30, align 8, !tbaa !23
  %.not11.i = icmp eq ptr %31, null
  br i1 %.not11.i, label %33, label %32

32:                                               ; preds = %29
  tail call void @free(ptr noundef nonnull %31) #30
  br label %33

33:                                               ; preds = %32, %29
  %34 = getelementptr inbounds nuw i8, ptr %25, i64 16
  %35 = load ptr, ptr %34, align 8, !tbaa !22
  %.not12.i = icmp eq ptr %35, null
  br i1 %.not12.i, label %37, label %36

36:                                               ; preds = %33
  tail call void @free(ptr noundef nonnull %35) #30
  br label %37

37:                                               ; preds = %36, %33
  store i32 0, ptr %25, align 8, !tbaa !27
  br label %38

38:                                               ; preds = %37, %26
  %39 = getelementptr inbounds nuw i8, ptr %25, i64 24
  %40 = load ptr, ptr %39, align 8, !tbaa !16
  %41 = icmp eq ptr %40, null
  br i1 %41, label %onig_region_free.exit, label %42

42:                                               ; preds = %38
  tail call fastcc void @history_tree_free(ptr noundef %40)
  br label %onig_region_free.exit

onig_region_free.exit:                            ; preds = %38, %42
  tail call void @free(ptr noundef nonnull %25) #30
  br label %43

43:                                               ; preds = %onig_region_free.exit, %.lr.ph
  %indvars.iv.next52 = add nuw nsw i64 %indvars.iv51, 1
  %44 = icmp samesign ult i64 %indvars.iv.next52, %23
  br i1 %44, label %.lr.ph, label %._crit_edge48, !llvm.loop !204

._crit_edge48:                                    ; preds = %43, %.preheader
  tail call void @free(ptr noundef %.pre54) #30
  tail call void @free(ptr noundef nonnull %4) #30
  br label %45

._crit_edge:                                      ; preds = %17, %13
  store ptr %4, ptr %0, align 8, !tbaa !199
  br label %45

45:                                               ; preds = %._crit_edge48, %3, %._crit_edge, %12
  %.0 = phi i32 [ -5, %12 ], [ %20, %._crit_edge48 ], [ 0, %._crit_edge ], [ -5, %3 ]
  ret i32 %.0
}